; Function Attrs: nounwind uwtable
define void @sws_frame_end(ptr noundef captures(none) initializes((280, 284)) %0) local_unnamed_addr #0 {
  %2 = getelementptr inbounds nuw i8, ptr %0, i64 256
  %3 = load ptr, ptr %2, align 16, !tbaa !119
  tail call void @av_frame_unref(ptr noundef %3) #11
  %4 = getelementptr inbounds nuw i8, ptr %0, i64 264
  %5 = load ptr, ptr %4, align 8, !tbaa !120
  tail call void @av_frame_unref(ptr noundef %5) #11
  %6 = getelementptr inbounds nuw i8, ptr %0, i64 280
  store i32 0, ptr %6, align 8, !tbaa !121
  ret void
}